(S'TaiwanDrama'
p0
S'Lifeismoney'
p1
S'Tennis'
p2
S'MobileComm'
p3
S'DIABLO'
p4
S'PuzzleDragon'
p5
S'KR_Entertain'
p6
S'Stock'
p7
S'WomenTalk'
p8
S'StupidClown'
p9
S'Beauty'
p10
S'Food'
p11
S'ToS'
p12
S'Hunter'
p13
S'BuyTogether'
p14
S'LoL'
p15
S'KoreaDrama'
p16
S'studyteacher'
p17
S'Baseball'
p18
S'Hearthstone'
p19
S'NBA'
p20
S'StarCraft'
p21
S'Monkeys'
p22
S'Tech_Job'
p23
S'C_Chat'
p24
S'BabyMother'
p25
S'Gossiping'
p26
S'AllTogether'
p27
S'Japandrama'
p28
S'car'
p29
S'Elephants'
p30
S'joke'
p31
S'NBA_Film'
p32
S'marriage'
p33
S'movie'
p34
S'Japan_Travel'
p35
S'marvel'
p36
tp37
.