(S'TaiwanDrama'
p0
S'MobileComm'
p1
S'DIABLO'
p2
S'PuzzleDragon'
p3
S'KR_Entertain'
p4
S'Stock'
p5
S'WomenTalk'
p6
S'StupidClown'
p7
S'Beauty'
p8
S'Food'
p9
S'ToS'
p10
S'feminine_sex'
p11
S'BuyTogether'
p12
S'LoL'
p13
S'KoreaDrama'
p14
S'Baseball'
p15
S'Hearthstone'
p16
S'NBA'
p17
S'StarCraft'
p18
S'Tainan'
p19
S'Tech_Job'
p20
S'gay'
p21
S'C_Chat'
p22
S'Japandrama'
p23
S'BabyMother'
p24
S'Gossiping'
p25
S'AllTogether'
p26
S'Wanted'
p27
S'HatePolitics'
p28
S'car'
p29
S'Elephants'
p30
S'joke'
p31
S'NTU'
p32
S'NBA_Film'
p33
S'movie'
p34
S'ONE_PIECE'
p35
S'Japan_Travel'
p36
S'marvel'
p37
tp38
.